target datalayout = "e-m:e-p270:32:32-p271:32:32-p272:64:64-i64:64-i128:128-f80:128-n8:16:32:64-S128"
target triple = "x86_64-pc-linux-gnu"

; Function Attrs: nounwind uwtable
define i32 @stbi__addsizes_valid(i32 noundef %0, i32 noundef %1) #0 {
  %3 = alloca i32, align 4
  %4 = alloca i32, align 4
  %5 = alloca i32, align 4
  store i32 %0, ptr %4, align 4, !tbaa !9
  store i32 %1, ptr %5, align 4, !tbaa !9
  %6 = load i32, ptr %5, align 4, !tbaa !9
  %7 = icmp slt i32 %6, 0
  br i1 %7, label %8, label %9

8:                                                ; preds = %2
  store i32 0, ptr %3, align 4
  br label %15

9:                                                ; preds = %2
  %10 = load i32, ptr %4, align 4, !tbaa !9
  %11 = load i32, ptr %5, align 4, !tbaa !9
  %12 = sub nsw i32 2147483647, %11
  %13 = icmp sle i32 %10, %12
  %14 = zext i1 %13 to i32
  store i32 %14, ptr %3, align 4
  br label %15

15:                                               ; preds = %9, %8
  %16 = load i32, ptr %3, align 4
  ret i32 %16
}

; Function Attrs: nounwind uwtable
define i32 @stbi__mul2sizes_valid(i32 noundef %0, i32 noundef %1) #0 {
  %3 = alloca i32, align 4
  %4 = alloca i32, align 4
  %5 = alloca i32, align 4
  store i32 %0, ptr %4, align 4, !tbaa !9
  store i32 %1, ptr %5, align 4, !tbaa !9
  %6 = load i32, ptr %4, align 4, !tbaa !9
  %7 = icmp slt i32 %6, 0
  br i1 %7, label %11, label %8

8:                                                ; preds = %2
  %9 = load i32, ptr %5, align 4, !tbaa !9
  %10 = icmp slt i32 %9, 0
  br i1 %10, label %11, label %12

11:                                               ; preds = %8, %2
  store i32 0, ptr %3, align 4
  br label %22

12:                                               ; preds = %8
  %13 = load i32, ptr %5, align 4, !tbaa !9
  %14 = icmp eq i32 %13, 0
  br i1 %14, label %15, label %16

15:                                               ; preds = %12
  store i32 1, ptr %3, align 4
  br label %22

16:                                               ; preds = %12
  %17 = load i32, ptr %4, align 4, !tbaa !9
  %18 = load i32, ptr %5, align 4, !tbaa !9
  %19 = sdiv i32 2147483647, %18
  %20 = icmp sle i32 %17, %19
  %21 = zext i1 %20 to i32
  store i32 %21, ptr %3, align 4
  br label %22

22:                                               ; preds = %16, %15, %11
  %23 = load i32, ptr %3, align 4
  ret i32 %23
}

; Function Attrs: nounwind uwtable
define ptr @stbi__malloc(i64 noundef %0) #0 {
  %2 = alloca i64, align 8
  store i64 %0, ptr %2, align 8, !tbaa !26
  %3 = load i64, ptr %2, align 8, !tbaa !26
  %4 = call noalias ptr @malloc(i64 noundef %3) #14
  ret ptr %4
}

; Function Attrs: nounwind uwtable
define i32 @stbi__mad2sizes_valid(i32 noundef %0, i32 noundef %1, i32 noundef %2) #0 {
  %4 = alloca i32, align 4
  %5 = alloca i32, align 4
  %6 = alloca i32, align 4
  store i32 %0, ptr %4, align 4, !tbaa !9
  store i32 %1, ptr %5, align 4, !tbaa !9
  store i32 %2, ptr %6, align 4, !tbaa !9
  %7 = load i32, ptr %4, align 4, !tbaa !9
  %8 = load i32, ptr %5, align 4, !tbaa !9
  %9 = call i32 @stbi__mul2sizes_valid(i32 noundef %7, i32 noundef %8)
  %10 = icmp ne i32 %9, 0
  br i1 %10, label %11, label %18

11:                                               ; preds = %3
  %12 = load i32, ptr %4, align 4, !tbaa !9
  %13 = load i32, ptr %5, align 4, !tbaa !9
  %14 = mul nsw i32 %12, %13
  %15 = load i32, ptr %6, align 4, !tbaa !9
  %16 = call i32 @stbi__addsizes_valid(i32 noundef %14, i32 noundef %15)
  %17 = icmp ne i32 %16, 0
  br label %18

18:                                               ; preds = %11, %3
  %19 = phi i1 [ false, %3 ], [ %17, %11 ]
  %20 = zext i1 %19 to i32
  ret i32 %20
}

; Function Attrs: nounwind uwtable
define ptr @stbi__malloc_mad2(i32 noundef %0, i32 noundef %1, i32 noundef %2) #0 {
  %4 = alloca ptr, align 8
  %5 = alloca i32, align 4
  %6 = alloca i32, align 4
  %7 = alloca i32, align 4
  store i32 %0, ptr %5, align 4, !tbaa !9
  store i32 %1, ptr %6, align 4, !tbaa !9
  store i32 %2, ptr %7, align 4, !tbaa !9
  %8 = load i32, ptr %5, align 4, !tbaa !9
  %9 = load i32, ptr %6, align 4, !tbaa !9
  %10 = load i32, ptr %7, align 4, !tbaa !9
  %11 = call i32 @stbi__mad2sizes_valid(i32 noundef %8, i32 noundef %9, i32 noundef %10)
  %12 = icmp ne i32 %11, 0
  br i1 %12, label %14, label %13

13:                                               ; preds = %3
  store ptr null, ptr %4, align 8
  br label %22

14:                                               ; preds = %3
  %15 = load i32, ptr %5, align 4, !tbaa !9
  %16 = load i32, ptr %6, align 4, !tbaa !9
  %17 = mul nsw i32 %15, %16
  %18 = load i32, ptr %7, align 4, !tbaa !9
  %19 = add nsw i32 %17, %18
  %20 = sext i32 %19 to i64
  %21 = call ptr @stbi__malloc(i64 noundef %20)
  store ptr %21, ptr %4, align 8
  br label %22

22:                                               ; preds = %14, %13
  %23 = load ptr, ptr %4, align 8
  ret ptr %23
}