; Function Attrs: mustprogress nofree nounwind willreturn memory(inaccessiblemem: readwrite) uwtable
define noalias noundef ptr @stbi__malloc_mad2(i32 noundef %0, i32 noundef %1, i32 noundef %2) local_unnamed_addr #12 {
  %4 = or i32 %1, %0
  %or.cond.not.i.i = icmp sgt i32 %4, -1
  br i1 %or.cond.not.i.i, label %5, label %stbi__mad2sizes_valid.exit.thread

5:                                                ; preds = %3
  %6 = icmp eq i32 %1, 0
  br i1 %6, label %stbi__mad2sizes_valid.exit, label %stbi__mul2sizes_valid.exit.i

stbi__mul2sizes_valid.exit.i:                     ; preds = %5
  %7 = udiv i32 2147483647, %1
  %.not11.i = icmp sgt i32 %0, %7
  br i1 %.not11.i, label %stbi__mad2sizes_valid.exit.thread, label %stbi__mad2sizes_valid.exit

stbi__mad2sizes_valid.exit:                       ; preds = %5, %stbi__mul2sizes_valid.exit.i
  %8 = mul nsw i32 %1, %0
  %9 = icmp slt i32 %2, 0
  %10 = sub nuw nsw i32 2147483647, %2
  %11 = icmp sgt i32 %8, %10
  %narrow.i.i.not = select i1 %9, i1 true, i1 %11
  br i1 %narrow.i.i.not, label %stbi__mad2sizes_valid.exit.thread, label %12

12:                                               ; preds = %stbi__mad2sizes_valid.exit
  %13 = add nsw i32 %8, %2
  %14 = sext i32 %13 to i64
  %15 = tail call noalias noundef ptr @malloc(i64 noundef %14) #38
  br label %stbi__mad2sizes_valid.exit.thread

stbi__mad2sizes_valid.exit.thread:                ; preds = %3, %stbi__mul2sizes_valid.exit.i, %stbi__mad2sizes_valid.exit, %12
  %.0 = phi ptr [ %15, %12 ], [ null, %stbi__mad2sizes_valid.exit ], [ null, %stbi__mul2sizes_valid.exit.i ], [ null, %3 ]
  ret ptr %.0
}